; Function Attrs: alwaysinline norecurse nounwind uwtable
define internal void @_ZNK4ncnn13PReLU_x86_avx15forward_inplaceERNS_3MatERKNS_6OptionE.omp_outlined(ptr noalias noundef readonly captures(none) %0, ptr noalias readnone captures(none) %1, ptr noundef nonnull readonly align 4 captures(none) dereferenceable(4) %2, ptr noundef nonnull readonly align 4 captures(none) dereferenceable(4) %3, ptr noundef nonnull readonly align 8 captures(none) dereferenceable(8) %4, ptr noundef nonnull readonly align 8 captures(none) dereferenceable(8) %5) #5 personality ptr @__gxx_personality_v0 {
  %7 = alloca i32, align 4
  %8 = alloca i32, align 4
  %9 = alloca i32, align 4
  %10 = alloca i32, align 4
  %11 = load i32, ptr %2, align 4, !tbaa !21
  %12 = icmp sgt i32 %11, 0
  br i1 %12, label %13, label %34

13:                                               ; preds = %6
  %14 = add nsw i32 %11, -1
  call void @llvm.lifetime.start.p0(i64 4, ptr nonnull %7) #6
  store i32 0, ptr %7, align 4, !tbaa !21
  call void @llvm.lifetime.start.p0(i64 4, ptr nonnull %8) #6
  store i32 %14, ptr %8, align 4, !tbaa !21
  call void @llvm.lifetime.start.p0(i64 4, ptr nonnull %9) #6
  store i32 1, ptr %9, align 4, !tbaa !21
  call void @llvm.lifetime.start.p0(i64 4, ptr nonnull %10) #6
  store i32 0, ptr %10, align 4, !tbaa !21
  %15 = load i32, ptr %0, align 4, !tbaa !21
  call void @__kmpc_for_static_init_4(ptr nonnull @1, i32 %15, i32 34, ptr nonnull %10, ptr nonnull %7, ptr nonnull %8, ptr nonnull %9, i32 1, i32 1)
  %16 = load i32, ptr %8, align 4, !tbaa !21
  %17 = call i32 @llvm.smin.i32(i32 %16, i32 %14)
  store i32 %17, ptr %8, align 4, !tbaa !21
  %18 = load i32, ptr %7, align 4, !tbaa !21
  %.not19 = icmp sgt i32 %18, %17
  br i1 %.not19, label %._crit_edge, label %.lr.ph

.lr.ph:                                           ; preds = %13, %.lr.ph
  %.020 = phi i32 [ %33, %.lr.ph ], [ %18, %13 ]
  %19 = load i32, ptr %3, align 4, !tbaa !21
  %20 = shl nsw i32 %.020, 3
  %21 = add nsw i32 %19, %20
  %22 = load ptr, ptr %4, align 8, !tbaa !40
  %23 = sext i32 %21 to i64
  %24 = getelementptr inbounds float, ptr %22, i64 %23
  %25 = load <8 x float>, ptr %24, align 1, !tbaa !47
  %26 = load ptr, ptr %5, align 8, !tbaa !40
  %27 = getelementptr inbounds float, ptr %26, i64 %23
  %28 = load <8 x float>, ptr %27, align 1, !tbaa !47
  %29 = call fast noundef <8 x float> @llvm.x86.avx.max.ps.256(<8 x float> zeroinitializer, <8 x float> %25)
  %30 = call fast noundef <8 x float> @llvm.x86.avx.min.ps.256(<8 x float> zeroinitializer, <8 x float> %25)
  %31 = fmul fast <8 x float> %30, %28
  %32 = fadd fast <8 x float> %31, %29
  store <8 x float> %32, ptr %24, align 1, !tbaa !47
  %33 = add i32 %.020, 1
  %exitcond.not = icmp eq i32 %.020, %17
  br i1 %exitcond.not, label %._crit_edge, label %.lr.ph

._crit_edge:                                      ; preds = %.lr.ph, %13
  call void @__kmpc_for_static_fini(ptr nonnull @1, i32 %15)
  call void @llvm.lifetime.end.p0(i64 4, ptr nonnull %10) #6
  call void @llvm.lifetime.end.p0(i64 4, ptr nonnull %9) #6
  call void @llvm.lifetime.end.p0(i64 4, ptr nonnull %8) #6
  call void @llvm.lifetime.end.p0(i64 4, ptr nonnull %7) #6
  br label %34

34:                                               ; preds = %._crit_edge, %6
  ret void
}